; Function Attrs: mustprogress uwtable
define noundef nonnull align 4 dereferenceable(4) ptr @_ZN3nix11AutoCloseFDaSEOS0_(ptr noundef nonnull returned align 4 dereferenceable(4) %0, ptr nocapture noundef nonnull align 4 dereferenceable(4) %1) local_unnamed_addr #2 align 2 personality ptr @__gxx_personality_v0 {
  %3 = load i32, ptr %0, align 4
  %.not.i = icmp eq i32 %3, -1
  br i1 %.not.i, label %_ZN3nix11AutoCloseFD5closeEv.exit, label %4

4:                                                ; preds = %2
  %5 = tail call i32 @close(i32 noundef %3)
  %6 = icmp eq i32 %5, -1
  br i1 %6, label %7, label %12

7:                                                ; preds = %4
  %8 = tail call ptr @__cxa_allocate_exception(i64 384) #29
  invoke void @_ZN3nix8SysErrorC2IJA28_ciEEEDpRKT_(ptr noundef nonnull align 8 dereferenceable(380) %8, ptr noundef nonnull align 1 dereferenceable(28) @.str.9, ptr noundef nonnull align 4 dereferenceable(4) %0)
          to label %9 unwind label %10

9:                                                ; preds = %7
  tail call void @__cxa_throw(ptr nonnull %8, ptr nonnull @_ZTIN3nix8SysErrorE, ptr nonnull @_ZN3nix8SysErrorD2Ev) #30
  unreachable

10:                                               ; preds = %7
  %11 = landingpad { ptr, i32 }
          cleanup
  tail call void @__cxa_free_exception(ptr %8) #29
  resume { ptr, i32 } %11

12:                                               ; preds = %4
  store i32 -1, ptr %0, align 4
  br label %_ZN3nix11AutoCloseFD5closeEv.exit

_ZN3nix11AutoCloseFD5closeEv.exit:                ; preds = %2, %12
  %13 = load i32, ptr %1, align 4
  store i32 %13, ptr %0, align 4
  store i32 -1, ptr %1, align 4
  ret ptr %0
}